; Function Attrs: mustprogress nofree norecurse nosync nounwind willreturn memory(argmem: read) uwtable
define noundef zeroext i1 @_ZNK32pxrInternal_v0_24__pxrReserved__11NdrProperty12CanConnectToERKS0_(ptr nocapture noundef nonnull readonly align 8 dereferenceable(120) %0, ptr nocapture noundef nonnull readonly align 8 dereferenceable(120) %1) unnamed_addr #4 align 2 personality ptr @__gxx_personality_v0 {
  %3 = getelementptr inbounds nuw i8, ptr %0, i64 40
  %4 = load i8, ptr %3, align 8
  %5 = getelementptr inbounds nuw i8, ptr %1, i64 40
  %6 = load i8, ptr %5, align 8
  %7 = xor i8 %6, %4
  %8 = trunc i8 %7 to i1
  br i1 %8, label %9, label %21

9:                                                ; preds = %2
  %10 = getelementptr inbounds nuw i8, ptr %0, i64 16
  %11 = getelementptr inbounds nuw i8, ptr %1, i64 16
  %12 = load ptr, ptr %10, align 8
  %13 = ptrtoint ptr %12 to i64
  %14 = and i64 %13, -8
  %15 = inttoptr i64 %14 to ptr
  %16 = load ptr, ptr %11, align 8
  %17 = ptrtoint ptr %16 to i64
  %18 = and i64 %17, -8
  %19 = inttoptr i64 %18 to ptr
  %20 = icmp eq ptr %15, %19
  br label %21

21:                                               ; preds = %2, %9
  %.0 = phi i1 [ %20, %9 ], [ false, %2 ]
  ret i1 %.0
}